EXPORTS
    _ZN4IF9710lmd_satT_lEd @1
    _ZN4IF9710lmd_satT_sEd @2
    _ZN4IF974T_hsEdd @3
    _ZN4IF974T_hvEdd @4
    _ZN4IF974T_hxEddRdS0_ @5
    _ZN4IF974T_phEdd @6
    _ZN4IF974T_psEdd @7
    _ZN4IF974T_pvEdd @8
    _ZN4IF974T_pxEdd @9
    _ZN4IF974T_sxEddRdS0_S0_ @10
    _ZN4IF974T_vsEdd @11
    _ZN4IF974T_vxEddRdS0_ @12
    _ZN4IF974h_pTEdd @13
    _ZN4IF974h_psEdd @14
    _ZN4IF974h_pvEdd @15
    _ZN4IF974h_pxEdd @16
    _ZN4IF974h_sTEdd @17
    _ZN4IF974h_sxEddRdS0_S0_ @18
    _ZN4IF974h_vTEdd @19
    _ZN4IF974h_vsEdd @20
    _ZN4IF974h_vxEddRdS0_ @21
    _ZN4IF974h_xTEdd @22
    _ZN4IF974p_hTEddRdS0_ @23
    _ZN4IF974p_hsEdd @24
    _ZN4IF974p_hvEdd @25
    _ZN4IF974p_hxEddRdS0_ @26
    _ZN4IF974p_sTEdd @27
    _ZN4IF974p_sxEddRdS0_S0_ @28
    _ZN4IF974p_vTEdd @29
    _ZN4IF974p_vsEdd @30
    _ZN4IF974p_vxEddRdS0_ @31
    _ZN4IF974p_xTEdd @32
    _ZN4IF974s_hTEddRdS0_ @33
    _ZN4IF974s_hvEdd @34
    _ZN4IF974s_hxEddRdS0_ @35
    _ZN4IF974s_pTEdd @36
    _ZN4IF974s_phEdd @37
    _ZN4IF974s_pvEdd @38
    _ZN4IF974s_pxEdd @39
    _ZN4IF974s_vTEdd @40
    _ZN4IF974s_vxEddRdS0_ @41
    _ZN4IF974s_xTEdd @42
    _ZN4IF974u_hTEddRdS0_ @43
    _ZN4IF974u_hsEdd @44
    _ZN4IF974u_hvEdd @45
    _ZN4IF974u_hxEddRdS0_ @46
    _ZN4IF974u_pTEdd @47
    _ZN4IF974u_phEdd @48
    _ZN4IF974u_psEdd @49
    _ZN4IF974u_pvEdd @50
    _ZN4IF974u_pxEdd @51
    _ZN4IF974u_sTEdd @52
    _ZN4IF974u_sxEddRdS0_S0_ @53
    _ZN4IF974u_vTEdd @54
    _ZN4IF974u_vsEdd @55
    _ZN4IF974u_vxEddRdS0_ @56
    _ZN4IF974u_xTEdd @57
    _ZN4IF974v_hTEddRdS0_ @58
    _ZN4IF974v_hsEdd @59
    _ZN4IF974v_hxEddRdS0_ @60
    _ZN4IF974v_pTEdd @61
    _ZN4IF974v_phEdd @62
    _ZN4IF974v_psEdd @63
    _ZN4IF974v_pxEdd @64
    _ZN4IF974v_sTEdd @65
    _ZN4IF974v_sxEddRdS0_S0_ @66
    _ZN4IF974v_xTEdd @67
    _ZN4IF974w_hTEddRdS0_ @68
    _ZN4IF974w_hsEdd @69
    _ZN4IF974w_hvEdd @70
    _ZN4IF974w_hxEddRdS0_ @71
    _ZN4IF974w_pTEdd @72
    _ZN4IF974w_phEdd @73
    _ZN4IF974w_psEdd @74
    _ZN4IF974w_pvEdd @75
    _ZN4IF974w_pxEdd @76
    _ZN4IF974w_sTEdd @77
    _ZN4IF974w_sxEddRdS0_S0_ @78
    _ZN4IF974w_vTEdd @79
    _ZN4IF974w_vsEdd @80
    _ZN4IF974w_vxEddRdS0_ @81
    _ZN4IF974w_xTEdd @82
    _ZN4IF974x_hTEddRdS0_ @83
    _ZN4IF974x_hsEdd @84
    _ZN4IF974x_hvEdd @85
    _ZN4IF974x_phEdd @86
    _ZN4IF974x_psEdd @87
    _ZN4IF974x_pvEdd @88
    _ZN4IF974x_sTEdd @89
    _ZN4IF974x_vTEdd @90
    _ZN4IF974x_vsEdd @91
    _ZN4IF975IsSatEdd @92
    _ZN4IF975Sgm_TEd @93
    _ZN4IF975cp_hTEddRdS0_ @94
    _ZN4IF975cp_hsEdd @95
    _ZN4IF975cp_hvEdd @96
    _ZN4IF975cp_hxEddRdS0_ @97
    _ZN4IF975cp_pTEdd @98
    _ZN4IF975cp_phEdd @99
    _ZN4IF975cp_psEdd @100
    _ZN4IF975cp_pvEdd @101
    _ZN4IF975cp_pxEdd @102
    _ZN4IF975cp_sTEdd @103
    _ZN4IF975cp_sxEddRdS0_S0_ @104
    _ZN4IF975cp_vTEdd @105
    _ZN4IF975cp_vsEdd @106
    _ZN4IF975cp_vxEddRdS0_ @107
    _ZN4IF975cp_xTEdd @108
    _ZN4IF975cv_hTEddRdS0_ @109
    _ZN4IF975cv_hsEdd @110
    _ZN4IF975cv_hvEdd @111
    _ZN4IF975cv_hxEddRdS0_ @112
    _ZN4IF975cv_pTEdd @113
    _ZN4IF975cv_phEdd @114
    _ZN4IF975cv_psEdd @115
    _ZN4IF975cv_pvEdd @116
    _ZN4IF975cv_pxEdd @117
    _ZN4IF975cv_sTEdd @118
    _ZN4IF975cv_sxEddRdS0_S0_ @119
    _ZN4IF975cv_vTEdd @120
    _ZN4IF975cv_vsEdd @121
    _ZN4IF975cv_vxEddRdS0_ @122
    _ZN4IF975cv_xTEdd @123
    _ZN4IF976Dis_pTEee @124
    _ZN4IF976T_satpEd @125
    _ZN4IF976h_satsEd @126
    _ZN4IF976h_satvEd @127
    _ZN4IF976p_satTEd @128
    _ZN4IF976s_satvEd @129
    _ZN4IF977n_rhoTLEddd @130
    _ZN4IF978Atr_rhoTEdd @131
    _ZN4IF978Ecs_rhoTEdd @132
    _ZN4IF978Lmd_rhoTEdd @133
    _ZN4IF978h_satT_lEd @134
    _ZN4IF978h_satT_sEd @135
    _ZN4IF978h_satp_lEd @136
    _ZN4IF978h_satp_sEd @137
    _ZN4IF978h_sats_lEd @138
    _ZN4IF978h_sats_sEd @139
    _ZN4IF978h_satv_sEd @140
    _ZN4IF978s_satT_lEd @141
    _ZN4IF978s_satT_sEd @142
    _ZN4IF978s_satp_lEd @143
    _ZN4IF978s_satp_sEd @144
    _ZN4IF978s_satv_sEd @145
    _ZN4IF978u_satT_lEd @146
    _ZN4IF978u_satT_sEd @147
    _ZN4IF978u_satp_lEd @148
    _ZN4IF978u_satp_sEd @149
    _ZN4IF978v_satT_lEd @150
    _ZN4IF978v_satT_sEd @151
    _ZN4IF978v_satp_lEd @152
    _ZN4IF978v_satp_sEd @153
    _ZN4IF978w_satT_lEd @154
    _ZN4IF978w_satT_sEd @155
    _ZN4IF978w_satp_lEd @156
    _ZN4IF978w_satp_sEd @157
    _ZN4IF979cp_satT_lEd @158
    _ZN4IF979cp_satT_sEd @159
    _ZN4IF979cp_satp_lEd @160
    _ZN4IF979cp_satp_sEd @161
    _ZN4IF979cv_satT_lEd @162
    _ZN4IF979cv_satT_sEd @163
    _ZN4IF979cv_satp_lEd @164
    _ZN4IF979cv_satp_sEd @165
